target datalayout = "e-m:e-p270:32:32-p271:32:32-p272:64:64-i64:64-i128:128-f80:128-n8:16:32:64-S128"
target triple = "x86_64-pc-linux-gnu"

%struct.ripper = type { ptr, i32, %union.anon }
%union.anon = type { %struct.lex_pointer_string }
%struct.lex_pointer_string = type { i64, i64 }

; Function Attrs: nounwind sspstrong uwtable
define internal i64 @ripper_parser_memsize2(ptr noundef %0) #0 {
  %2 = alloca ptr, align 8
  %3 = alloca ptr, align 8
  store ptr %0, ptr %2, align 8, !tbaa !25
  call void @llvm.lifetime.start.p0(i64 8, ptr %3) #16
  %4 = load ptr, ptr %2, align 8, !tbaa !25
  store ptr %4, ptr %3, align 8, !tbaa !19
  %5 = load ptr, ptr %3, align 8, !tbaa !19
  %6 = getelementptr inbounds nuw %struct.ripper, ptr %5, i32 0, i32 0
  %7 = load ptr, ptr %6, align 8, !tbaa !21
  %8 = icmp ne ptr %7, null
  br i1 %8, label %9, label %14

9:                                                ; preds = %1
  %10 = load ptr, ptr %3, align 8, !tbaa !19
  %11 = getelementptr inbounds nuw %struct.ripper, ptr %10, i32 0, i32 0
  %12 = load ptr, ptr %11, align 8, !tbaa !21
  %13 = call i64 @ripper_parser_memsize(ptr noundef %12)
  br label %15

14:                                               ; preds = %1
  br label %15

15:                                               ; preds = %14, %9
  %16 = phi i64 [ %13, %9 ], [ 0, %14 ]
  call void @llvm.lifetime.end.p0(i64 8, ptr %3) #16
  ret i64 %16
}