; Function Attrs: nounwind sspstrong uwtable
define internal i64 @ripper_parser_memsize2(ptr noundef readonly captures(none) %0) #0 {
  %2 = load ptr, ptr %0, align 8, !tbaa !18
  %.not = icmp eq ptr %2, null
  br i1 %.not, label %5, label %3

3:                                                ; preds = %1
  %4 = tail call i64 @ripper_parser_memsize(ptr noundef nonnull %2) #5
  br label %5

5:                                                ; preds = %1, %3
  %6 = phi i64 [ %4, %3 ], [ 0, %1 ]
  ret i64 %6
}